target datalayout = "e-m:e-p270:32:32-p271:32:32-p272:64:64-i64:64-i128:128-f80:128-n8:16:32:64-S128"
target triple = "x86_64-unknown-linux-gnu"

@_ZN24btPairCachingGhostObjectD1Ev = dso_local unnamed_addr alias void (ptr), ptr @_ZN24btPairCachingGhostObjectD2Ev

; Function Attrs: mustprogress nounwind uwtable
define linkonce_odr dso_local void @_ZN17btCollisionObjectdlEPv(ptr noundef %ptr) #1 comdat align 2 personality ptr @__gxx_personality_v0 {
entry:
  %ptr.addr = alloca ptr, align 8
  store ptr %ptr, ptr %ptr.addr, align 8
  %0 = load ptr, ptr %ptr.addr, align 8
  invoke void @_Z21btAlignedFreeInternalPv(ptr noundef %0)
          to label %invoke.cont unwind label %terminate.lpad

invoke.cont:                                      ; preds = %entry
  ret void

terminate.lpad:                                   ; preds = %entry
  %1 = landingpad { ptr, i32 }
          catch ptr null
  %2 = extractvalue { ptr, i32 } %1, 0
  call void @__clang_call_terminate(ptr %2) #10
  unreachable
}

; Function Attrs: mustprogress nounwind uwtable
define dso_local void @_ZN24btPairCachingGhostObjectD0Ev(ptr noundef nonnull align 8 dereferenceable(416) %this) unnamed_addr #1 align 2 {
entry:
  %this.addr = alloca ptr, align 8
  store ptr %this, ptr %this.addr, align 8
  %this1 = load ptr, ptr %this.addr, align 8
  call void @_ZN24btPairCachingGhostObjectD1Ev(ptr noundef nonnull align 8 dereferenceable(416) %this1) #9
  call void @_ZN17btCollisionObjectdlEPv(ptr noundef %this1) #9
  ret void
}